#include <math.h>
#include <stdio.h>
#include <stdlib.h>
#include <string.h>

int main(){
    int i,j,m=0,n=0,total=0,zong=0,A=1;
    double bl,suande;
    char z1[100];
    char z2[100];
    scanf("%lf",&bl);
    scanf("%s",&z1);
    scanf("%s",&z2);
    for(i=0;z1[i]!='\0';i++){
        m++;
    }
    for(i=0;z2[i]!='\0';i++){
        n++;
    }
    if(m!=n){
        printf("error");
    }
    else{
        for(i=0;z1[i]!='\0';i++){
            zong++;
            if(((z1[i]!='A')&&(z1[i]!='T')&&(z1[i]!='C')&&(z1[i]!='G'))||((z2[i]!='A')&&(z2[i]!='T')&&(z2[i]!='C')&&(z2[i]!='G'))){
                A=0;
                break;
            }
            else{
                if(z1[i]==z2[i]){
                    total++;
                }
            }
        }
        suande=1.0*total/zong;
        if((A==1)&&(suande<=bl)){
            printf("no");
        }
        else if((A==1)&&(suande>bl)){
            printf("yes");
        }
        else if(A==0){
            printf("error");
        }
        else{printf("a");}
    }
    
    
    return 0;
}







